target datalayout = "e-m:e-p270:32:32-p271:32:32-p272:64:64-i64:64-i128:128-f80:128-n8:16:32:64-S128"
target triple = "x86_64-pc-linux-gnu"

; Function Attrs: inlinehint nounwind uwtable
define internal i32 @Abc_Lit2Var(i32 noundef %0) #1 {
  %2 = alloca i32, align 4
  store i32 %0, ptr %2, align 4, !tbaa !27
  %3 = load i32, ptr %2, align 4, !tbaa !27
  %4 = ashr i32 %3, 1
  ret i32 %4
}

; Function Attrs: nounwind uwtable
define i32 @If_CutDsdPermLitMax(ptr noundef %0, i32 noundef %1, i32 noundef %2) #0 {
  %4 = alloca i32, align 4
  %5 = alloca ptr, align 8
  %6 = alloca i32, align 4
  %7 = alloca i32, align 4
  %8 = alloca i32, align 4
  %9 = alloca i32, align 4
  store ptr %0, ptr %5, align 8, !tbaa !64
  store i32 %1, ptr %6, align 4, !tbaa !27
  store i32 %2, ptr %7, align 4, !tbaa !27
  call void @llvm.lifetime.start.p0(i64 4, ptr %8) #15
  store i32 0, ptr %8, align 4, !tbaa !27
  br label %10

10:                                               ; preds = %27, %3
  %11 = load i32, ptr %8, align 4, !tbaa !27
  %12 = load i32, ptr %6, align 4, !tbaa !27
  %13 = icmp slt i32 %11, %12
  br i1 %13, label %14, label %30

14:                                               ; preds = %10
  %15 = load i32, ptr %7, align 4, !tbaa !27
  %16 = load ptr, ptr %5, align 8, !tbaa !64
  %17 = load i32, ptr %8, align 4, !tbaa !27
  %18 = sext i32 %17 to i64
  %19 = getelementptr inbounds i8, ptr %16, i64 %18
  %20 = load i8, ptr %19, align 1, !tbaa !124
  %21 = sext i8 %20 to i32
  %22 = call i32 @Abc_Lit2Var(i32 noundef %21)
  %23 = icmp eq i32 %15, %22
  br i1 %23, label %24, label %26

24:                                               ; preds = %14
  %25 = load i32, ptr %8, align 4, !tbaa !27
  store i32 %25, ptr %4, align 4
  store i32 1, ptr %9, align 4
  br label %31

26:                                               ; preds = %14
  br label %27

27:                                               ; preds = %26
  %28 = load i32, ptr %8, align 4, !tbaa !27
  %29 = add nsw i32 %28, 1
  store i32 %29, ptr %8, align 4, !tbaa !27
  br label %10, !llvm.loop !280

30:                                               ; preds = %10
  store i32 -1, ptr %4, align 4
  store i32 1, ptr %9, align 4
  br label %31

31:                                               ; preds = %30, %24
  call void @llvm.lifetime.end.p0(i64 4, ptr %8) #15
  %32 = load i32, ptr %4, align 4
  ret i32 %32
}