; Function Attrs: nofree norecurse nosync nounwind memory(argmem: read) uwtable
define range(i32 -2147483648, 2147483647) i32 @If_CutDsdPermLitMax(ptr noundef readonly captures(none) %0, i32 noundef %1, i32 noundef %2) local_unnamed_addr #25 {
  %4 = icmp sgt i32 %1, 0
  br i1 %4, label %.lr.ph.preheader, label %._crit_edge

.lr.ph.preheader:                                 ; preds = %3
  %wide.trip.count = zext nneg i32 %1 to i64
  br label %.lr.ph

.lr.ph:                                           ; preds = %.lr.ph.preheader, %10
  %indvars.iv = phi i64 [ 0, %.lr.ph.preheader ], [ %indvars.iv.next, %10 ]
  %5 = getelementptr inbounds nuw i8, ptr %0, i64 %indvars.iv
  %6 = load i8, ptr %5, align 1, !tbaa !137
  %7 = ashr i8 %6, 1
  %8 = sext i8 %7 to i32
  %9 = icmp eq i32 %2, %8
  br i1 %9, label %._crit_edge.loopexit.split.loop.exit12, label %10

10:                                               ; preds = %.lr.ph
  %indvars.iv.next = add nuw nsw i64 %indvars.iv, 1
  %exitcond.not = icmp eq i64 %indvars.iv.next, %wide.trip.count
  br i1 %exitcond.not, label %._crit_edge, label %.lr.ph, !llvm.loop !264

._crit_edge.loopexit.split.loop.exit12:           ; preds = %.lr.ph
  %11 = trunc nuw nsw i64 %indvars.iv to i32
  br label %._crit_edge

._crit_edge:                                      ; preds = %10, %._crit_edge.loopexit.split.loop.exit12, %3
  %.07 = phi i32 [ -1, %3 ], [ %11, %._crit_edge.loopexit.split.loop.exit12 ], [ -1, %10 ]
  ret i32 %.07
}